target datalayout = "e-m:e-p270:32:32-p271:32:32-p272:64:64-i64:64-i128:128-f80:128-n8:16:32:64-S128"
target triple = "x86_64-pc-linux-gnu"

@fake_rand = internal global ptr null, align 8
@.str = private unnamed_addr constant [15 x i8] c"sm2_crypt_test\00", align 1
@.str.1 = private unnamed_addr constant [13 x i8] c"sm2_sig_test\00", align 1

; Function Attrs: nounwind uwtable
define dso_local i32 @setup_tests() #0 {
  %1 = alloca i32, align 4
  %2 = call ptr @fake_rand_start(ptr noundef null)
  store ptr %2, ptr @fake_rand, align 8, !tbaa !4
  %3 = load ptr, ptr @fake_rand, align 8, !tbaa !4
  %4 = icmp eq ptr %3, null
  br i1 %4, label %5, label %6

5:                                                ; preds = %0
  store i32 0, ptr %1, align 4
  br label %7

6:                                                ; preds = %0
  call void @add_test(ptr noundef @.str, ptr noundef @sm2_crypt_test)
  call void @add_test(ptr noundef @.str.1, ptr noundef @sm2_sig_test)
  store i32 1, ptr %1, align 4
  br label %7

7:                                                ; preds = %6, %5
  %8 = load i32, ptr %1, align 4
  ret i32 %8
}