; Function Attrs: nounwind uwtable
define dso_local range(i32 0, 2) i32 @setup_tests() local_unnamed_addr #0 {
  %1 = tail call ptr @fake_rand_start(ptr noundef null) #4
  store ptr %1, ptr @fake_rand, align 8, !tbaa !4
  %2 = icmp eq ptr %1, null
  br i1 %2, label %4, label %3

3:                                                ; preds = %0
  tail call void @add_test(ptr noundef nonnull @.str, ptr noundef nonnull @sm2_crypt_test) #4
  tail call void @add_test(ptr noundef nonnull @.str.1, ptr noundef nonnull @sm2_sig_test) #4
  br label %4

4:                                                ; preds = %0, %3
  %.0 = phi i32 [ 1, %3 ], [ 0, %0 ]
  ret i32 %.0
}